target datalayout = "e-m:e-p270:32:32-p271:32:32-p272:64:64-i64:64-i128:128-f80:128-n8:16:32:64-S128"
target triple = "x86_64-pc-linux-gnu"

; Function Attrs: nounwind uwtable
define ptr @Abc_NtkShareXorGia(ptr noundef %0, i32 noundef %1, i32 noundef %2, i32 noundef %3) #0 {
  %5 = alloca ptr, align 8
  %6 = alloca i32, align 4
  %7 = alloca i32, align 4
  %8 = alloca i32, align 4
  %9 = alloca ptr, align 8
  %10 = alloca ptr, align 8
  %11 = alloca ptr, align 8
  %12 = alloca ptr, align 8
  %13 = alloca ptr, align 8
  store ptr %0, ptr %5, align 8, !tbaa !132
  store i32 %1, ptr %6, align 4, !tbaa !16
  store i32 %2, ptr %7, align 4, !tbaa !16
  store i32 %3, ptr %8, align 4, !tbaa !16
  call void @llvm.lifetime.start.p0(i64 8, ptr %9) #9
  %14 = load ptr, ptr %5, align 8, !tbaa !132
  %15 = call ptr @Gia_ManToAig(ptr noundef %14, i32 noundef 0)
  store ptr %15, ptr %9, align 8, !tbaa !134
  call void @llvm.lifetime.start.p0(i64 8, ptr %10) #9
  %16 = load ptr, ptr %9, align 8, !tbaa !134
  %17 = call ptr @Abc_NtkFromAigPhase(ptr noundef %16)
  store ptr %17, ptr %10, align 8, !tbaa !3
  call void @llvm.lifetime.start.p0(i64 8, ptr %11) #9
  %18 = load ptr, ptr %10, align 8, !tbaa !3
  %19 = load i32, ptr %6, align 4, !tbaa !16
  %20 = load i32, ptr %7, align 4, !tbaa !16
  %21 = load i32, ptr %8, align 4, !tbaa !16
  %22 = call ptr @Abc_NtkShareXor(ptr noundef %18, i32 noundef %19, i32 noundef %20, i32 noundef %21)
  store ptr %22, ptr %11, align 8, !tbaa !3
  call void @llvm.lifetime.start.p0(i64 8, ptr %12) #9
  %23 = load ptr, ptr %11, align 8, !tbaa !3
  %24 = call ptr @Abc_NtkToDar(ptr noundef %23, i32 noundef 0, i32 noundef 0)
  store ptr %24, ptr %12, align 8, !tbaa !134
  call void @llvm.lifetime.start.p0(i64 8, ptr %13) #9
  %25 = load ptr, ptr %12, align 8, !tbaa !134
  %26 = call ptr @Gia_ManFromAig(ptr noundef %25)
  store ptr %26, ptr %13, align 8, !tbaa !132
  %27 = load ptr, ptr %11, align 8, !tbaa !3
  call void @Abc_NtkDelete(ptr noundef %27)
  %28 = load ptr, ptr %10, align 8, !tbaa !3
  call void @Abc_NtkDelete(ptr noundef %28)
  %29 = load ptr, ptr %12, align 8, !tbaa !134
  call void @Aig_ManStop(ptr noundef %29)
  %30 = load ptr, ptr %9, align 8, !tbaa !134
  call void @Aig_ManStop(ptr noundef %30)
  %31 = load ptr, ptr %13, align 8, !tbaa !132
  call void @llvm.lifetime.end.p0(i64 8, ptr %13) #9
  call void @llvm.lifetime.end.p0(i64 8, ptr %12) #9
  call void @llvm.lifetime.end.p0(i64 8, ptr %11) #9
  call void @llvm.lifetime.end.p0(i64 8, ptr %10) #9
  call void @llvm.lifetime.end.p0(i64 8, ptr %9) #9
  ret ptr %31
}