; Function Attrs: nounwind uwtable
define ptr @Abc_NtkShareXorGia(ptr noundef %0, i32 noundef %1, i32 noundef %2, i32 noundef %3) local_unnamed_addr #3 {
  %5 = tail call ptr @Gia_ManToAig(ptr noundef %0, i32 noundef 0) #15
  %6 = tail call ptr @Abc_NtkFromAigPhase(ptr noundef %5) #15
  %7 = tail call ptr @Abc_NtkShareXor(ptr noundef %6, i32 noundef %1, i32 noundef %2, i32 noundef %3)
  %8 = tail call ptr @Abc_NtkToDar(ptr noundef %7, i32 noundef 0, i32 noundef 0) #15
  %9 = tail call ptr @Gia_ManFromAig(ptr noundef %8) #15
  tail call void @Abc_NtkDelete(ptr noundef %7) #15
  tail call void @Abc_NtkDelete(ptr noundef %6) #15
  tail call void @Aig_ManStop(ptr noundef %8) #15
  tail call void @Aig_ManStop(ptr noundef %5) #15
  ret ptr %9
}